target datalayout = "e-m:e-p270:32:32-p271:32:32-p272:64:64-i64:64-i128:128-f80:128-n8:16:32:64-S128"
target triple = "x86_64-pc-linux-gnu"

@hf_ccp_opt_history_count = internal global i32 0, align 4
@hf_ccp_opt_cm = internal global i32 0, align 4
@hf_ccp_opt_data = internal global i32 0, align 4
@ett_ccp_stac_opt = internal global i32 0, align 4
@ett_ccp_stac_opt_check_mode = internal global i32 0, align 4
@proto_ccp_option_stac = internal global i32 0, align 4
@proto_ccp_option_stac_ascend = internal global i32 0, align 4
@dissect_ccp_stac_opt.check_mode_fields = internal constant [3 x ptr] [ptr @hf_ccp_opt_cm_reserved, ptr @hf_ccp_opt_cm_check_mode, ptr null], align 16

; Function Attrs: null_pointer_is_valid sspstrong uwtable
define internal i32 @dissect_ccp_stac_opt(ptr noundef %0, ptr noundef %1, ptr noundef %2, ptr noundef %3) #1 {
  %5 = alloca i32, align 4
  %6 = alloca ptr, align 8
  %7 = alloca ptr, align 8
  %8 = alloca ptr, align 8
  %9 = alloca ptr, align 8
  %10 = alloca ptr, align 8
  %11 = alloca ptr, align 8
  %12 = alloca i32, align 4
  %13 = alloca i32, align 4
  %14 = alloca i32, align 4
  store ptr %0, ptr %6, align 8
  store ptr %1, ptr %7, align 8
  store ptr %2, ptr %8, align 8
  store ptr %3, ptr %9, align 8
  call void @llvm.lifetime.start.p0(i64 8, ptr %10) #6
  call void @llvm.lifetime.start.p0(i64 8, ptr %11) #6
  call void @llvm.lifetime.start.p0(i64 4, ptr %12) #6
  store i32 0, ptr %12, align 4
  call void @llvm.lifetime.start.p0(i64 4, ptr %13) #6
  %15 = load ptr, ptr %6, align 8
  %16 = call i32 @tvb_reported_length(ptr noundef %15)
  store i32 %16, ptr %13, align 4
  %17 = load ptr, ptr %6, align 8
  %18 = load ptr, ptr %7, align 8
  %19 = load ptr, ptr %8, align 8
  %20 = load i32, ptr %13, align 4
  %21 = icmp eq i32 %20, 6
  br i1 %21, label %22, label %24

22:                                               ; preds = %4
  %23 = load i32, ptr @proto_ccp_option_stac_ascend, align 4
  br label %26

24:                                               ; preds = %4
  %25 = load i32, ptr @proto_ccp_option_stac, align 4
  br label %26

26:                                               ; preds = %24, %22
  %27 = phi i32 [ %23, %22 ], [ %25, %24 ]
  %28 = load i32, ptr @ett_ccp_stac_opt, align 4
  %29 = call zeroext i1 @dissect_ccp_var_opt(ptr noundef %17, ptr noundef %18, ptr noundef %19, i32 noundef %27, i32 noundef %28, i32 noundef 5, ptr noundef %10, ptr noundef %11)
  br i1 %29, label %33, label %30

30:                                               ; preds = %26
  %31 = load ptr, ptr %6, align 8
  %32 = call i32 @tvb_captured_length(ptr noundef %31)
  store i32 %32, ptr %5, align 4
  store i32 1, ptr %14, align 4
  br label %62

33:                                               ; preds = %26
  %34 = load i32, ptr %13, align 4
  %35 = icmp eq i32 %34, 6
  br i1 %35, label %36, label %45

36:                                               ; preds = %33
  %37 = load ptr, ptr %10, align 8
  %38 = load i32, ptr @hf_ccp_opt_data, align 4
  %39 = load ptr, ptr %6, align 8
  %40 = load i32, ptr %12, align 4
  %41 = add i32 %40, 2
  %42 = load i32, ptr %13, align 4
  %43 = sub i32 %42, 2
  %44 = call ptr @proto_tree_add_item(ptr noundef %37, i32 noundef %38, ptr noundef %39, i32 noundef %41, i32 noundef %43, i32 noundef 0)
  br label %59

45:                                               ; preds = %33
  %46 = load ptr, ptr %10, align 8
  %47 = load i32, ptr @hf_ccp_opt_history_count, align 4
  %48 = load ptr, ptr %6, align 8
  %49 = load i32, ptr %12, align 4
  %50 = add i32 %49, 2
  %51 = call ptr @proto_tree_add_item(ptr noundef %46, i32 noundef %47, ptr noundef %48, i32 noundef %50, i32 noundef 2, i32 noundef 0)
  %52 = load ptr, ptr %10, align 8
  %53 = load ptr, ptr %6, align 8
  %54 = load i32, ptr %12, align 4
  %55 = add i32 %54, 4
  %56 = load i32, ptr @hf_ccp_opt_cm, align 4
  %57 = load i32, ptr @ett_ccp_stac_opt_check_mode, align 4
  %58 = call ptr @proto_tree_add_bitmask(ptr noundef %52, ptr noundef %53, i32 noundef %55, i32 noundef %56, i32 noundef %57, ptr noundef @dissect_ccp_stac_opt.check_mode_fields, i32 noundef 0)
  br label %59

59:                                               ; preds = %45, %36
  %60 = load ptr, ptr %6, align 8
  %61 = call i32 @tvb_captured_length(ptr noundef %60)
  store i32 %61, ptr %5, align 4
  store i32 1, ptr %14, align 4
  br label %62

62:                                               ; preds = %59, %30
  call void @llvm.lifetime.end.p0(i64 4, ptr %13) #6
  call void @llvm.lifetime.end.p0(i64 4, ptr %12) #6
  call void @llvm.lifetime.end.p0(i64 8, ptr %11) #6
  call void @llvm.lifetime.end.p0(i64 8, ptr %10) #6
  %63 = load i32, ptr %5, align 4
  ret i32 %63
}