; Function Attrs: null_pointer_is_valid sspstrong uwtable
define internal i32 @dissect_ccp_stac_opt(ptr noundef %0, ptr noundef %1, ptr noundef %2, ptr readnone captures(none) %3) #1 {
  %5 = alloca ptr, align 8
  %6 = alloca ptr, align 8
  call void @llvm.lifetime.start.p0(i64 8, ptr nonnull %5) #8
  call void @llvm.lifetime.start.p0(i64 8, ptr nonnull %6) #8
  %7 = tail call i32 @tvb_reported_length(ptr noundef %0)
  %8 = icmp eq i32 %7, 6
  %9 = load i32, ptr @proto_ccp_option_stac_ascend, align 4
  %10 = load i32, ptr @proto_ccp_option_stac, align 4
  %11 = select i1 %8, i32 %9, i32 %10
  %12 = load i32, ptr @ett_ccp_stac_opt, align 4
  %13 = call fastcc zeroext i1 @dissect_ccp_var_opt(ptr noundef %0, ptr noundef %1, ptr noundef %2, i32 noundef %11, i32 noundef %12, i32 noundef 5, ptr noundef nonnull %5, ptr noundef nonnull %6)
  br i1 %13, label %14, label %25

14:                                               ; preds = %4
  %15 = load ptr, ptr %5, align 8
  br i1 %8, label %16, label %19

16:                                               ; preds = %14
  %17 = load i32, ptr @hf_ccp_opt_data, align 4
  %18 = tail call ptr @proto_tree_add_item(ptr noundef %15, i32 noundef %17, ptr noundef %0, i32 noundef 2, i32 noundef 4, i32 noundef 0)
  br label %25

19:                                               ; preds = %14
  %20 = load i32, ptr @hf_ccp_opt_history_count, align 4
  %21 = tail call ptr @proto_tree_add_item(ptr noundef %15, i32 noundef %20, ptr noundef %0, i32 noundef 2, i32 noundef 2, i32 noundef 0)
  %22 = load i32, ptr @hf_ccp_opt_cm, align 4
  %23 = load i32, ptr @ett_ccp_stac_opt_check_mode, align 4
  %24 = tail call ptr @proto_tree_add_bitmask(ptr noundef %15, ptr noundef %0, i32 noundef 4, i32 noundef %22, i32 noundef %23, ptr noundef nonnull @dissect_ccp_stac_opt.check_mode_fields, i32 noundef 0)
  br label %25

25:                                               ; preds = %16, %19, %4
  %26 = tail call i32 @tvb_captured_length(ptr noundef %0)
  call void @llvm.lifetime.end.p0(i64 8, ptr nonnull %6) #8
  call void @llvm.lifetime.end.p0(i64 8, ptr nonnull %5) #8
  ret i32 %26
}